#include <math.h>
#include <stdio.h>
#include <stdlib.h>
#include <string.h>

int main()

{
	int a,b,c,d,n;
	scanf("%d",&n);
	a=(int)(n/1000);
	b=(int)(n/100-a*10);
	c=(int)(n/10-a*100-b*10);
	d=(int)(n-a*1000-b*100-c*10);
	if(a==0)
	{
		if(b==0)
		{
			if(c==0)
			{
				printf("%d\n",d);
			}
			else
			printf("%d%d\n",d,c);
		}
		else printf("%d%d%d\n",d,c,b);
	}
	else
	printf("%d%d%d%d\n",d,c,b,a);		
	return 0;
}